; Function Attrs: nounwind uwtable
define i64 @H5PTget_dataset(i64 noundef %0) local_unnamed_addr #0 {
  %2 = load i32, ptr @H5PT_ptable_id_type, align 4, !tbaa !3
  %3 = tail call ptr @H5Iobject_verify(i64 noundef %0, i32 noundef %2) #7
  %4 = icmp eq ptr %3, null
  br i1 %4, label %7, label %5

5:                                                ; preds = %1
  %6 = load i64, ptr %3, align 8, !tbaa !14
  br label %7

7:                                                ; preds = %1, %5
  %.0 = phi i64 [ -1, %1 ], [ %6, %5 ]
  ret i64 %.0
}